target datalayout = "e-m:e-p270:32:32-p271:32:32-p272:64:64-i64:64-i128:128-f80:128-n8:16:32:64-S128"
target triple = "x86_64-pc-linux-gnu"

%struct.ct_test_fixture = type { ptr, i64, ptr, ptr, ptr, ptr, i32, i32, ptr, i64, ptr, ptr, ptr, i32 }

@ct_dir = internal global ptr null, align 8
@.str.10 = private unnamed_addr constant [20 x i8] c"test_decode_tls_sct\00", align 1
@.str.16 = private unnamed_addr constant [26 x i8] c"../openssl/test/ct_test.c\00", align 1
@.str.51 = private unnamed_addr constant [9 x i8] c"tls1.sct\00", align 1

; Function Attrs: nounwind uwtable
define internal void @tear_down(ptr noundef %0) #0 {
  %2 = alloca ptr, align 8
  store ptr %0, ptr %2, align 8, !tbaa !9
  %3 = load ptr, ptr %2, align 8, !tbaa !9
  %4 = icmp ne ptr %3, null
  br i1 %4, label %5, label %12

5:                                                ; preds = %1
  %6 = load ptr, ptr %2, align 8, !tbaa !9
  %7 = getelementptr inbounds nuw %struct.ct_test_fixture, ptr %6, i32 0, i32 2
  %8 = load ptr, ptr %7, align 8, !tbaa !37
  call void @CTLOG_STORE_free(ptr noundef %8)
  %9 = load ptr, ptr %2, align 8, !tbaa !9
  %10 = getelementptr inbounds nuw %struct.ct_test_fixture, ptr %9, i32 0, i32 10
  %11 = load ptr, ptr %10, align 8, !tbaa !31
  call void @SCT_LIST_free(ptr noundef %11)
  br label %12

12:                                               ; preds = %5, %1
  %13 = load ptr, ptr %2, align 8, !tbaa !9
  call void @CRYPTO_free(ptr noundef %13, ptr noundef @.str.16, i32 noundef 88)
  ret void
}

; Function Attrs: nounwind uwtable
define internal i32 @test_decode_tls_sct() #0 {
  %1 = alloca i32, align 4
  %2 = alloca [123 x i8], align 16
  %3 = alloca ptr, align 8
  %4 = alloca i32, align 4
  %5 = alloca i32, align 4
  call void @llvm.lifetime.start.p0(i64 123, ptr %2) #9
  call void @llvm.memcpy.p0.p0.i64(ptr align 16 %2, ptr align 16 @__const.test_decode_tls_sct.tls_sct_list, i64 123, i1 false)
  call void @llvm.lifetime.start.p0(i64 8, ptr %3) #9
  %6 = call ptr @set_up(ptr noundef @.str.10)
  store ptr %6, ptr %3, align 8, !tbaa !9
  call void @llvm.lifetime.start.p0(i64 4, ptr %4) #9
  store i32 0, ptr %4, align 4, !tbaa !11
  %7 = load ptr, ptr %3, align 8, !tbaa !9
  %8 = icmp eq ptr %7, null
  br i1 %8, label %9, label %10

9:                                                ; preds = %0
  store i32 0, ptr %1, align 4
  store i32 1, ptr %5, align 4
  br label %29

10:                                               ; preds = %0
  %11 = getelementptr inbounds [123 x i8], ptr %2, i64 0, i64 0
  %12 = load ptr, ptr %3, align 8, !tbaa !9
  %13 = getelementptr inbounds nuw %struct.ct_test_fixture, ptr %12, i32 0, i32 8
  store ptr %11, ptr %13, align 8, !tbaa !26
  %14 = load ptr, ptr %3, align 8, !tbaa !9
  %15 = getelementptr inbounds nuw %struct.ct_test_fixture, ptr %14, i32 0, i32 9
  store i64 122, ptr %15, align 8, !tbaa !27
  %16 = load ptr, ptr @ct_dir, align 8, !tbaa !4
  %17 = load ptr, ptr %3, align 8, !tbaa !9
  %18 = getelementptr inbounds nuw %struct.ct_test_fixture, ptr %17, i32 0, i32 11
  store ptr %16, ptr %18, align 8, !tbaa !21
  %19 = load ptr, ptr %3, align 8, !tbaa !9
  %20 = getelementptr inbounds nuw %struct.ct_test_fixture, ptr %19, i32 0, i32 12
  store ptr @.str.51, ptr %20, align 8, !tbaa !22
  %21 = load ptr, ptr %3, align 8, !tbaa !9
  %22 = icmp ne ptr %21, null
  br i1 %22, label %23, label %27

23:                                               ; preds = %10
  %24 = load ptr, ptr %3, align 8, !tbaa !9
  %25 = call i32 @execute_cert_test(ptr noundef %24)
  store i32 %25, ptr %4, align 4, !tbaa !11
  %26 = load ptr, ptr %3, align 8, !tbaa !9
  call void @tear_down(ptr noundef %26)
  br label %27

27:                                               ; preds = %23, %10
  %28 = load i32, ptr %4, align 4, !tbaa !11
  store i32 %28, ptr %1, align 4
  store i32 1, ptr %5, align 4
  br label %29

29:                                               ; preds = %27, %9
  call void @llvm.lifetime.end.p0(i64 4, ptr %4) #9
  call void @llvm.lifetime.end.p0(i64 8, ptr %3) #9
  call void @llvm.lifetime.end.p0(i64 123, ptr %2) #9
  %30 = load i32, ptr %1, align 4
  ret i32 %30
}