; Function Attrs: nounwind uwtable
define internal range(i32 0, 2) i32 @test_decode_tls_sct() #0 {
  %1 = alloca [123 x i8], align 16
  call void @llvm.lifetime.start.p0(i64 123, ptr nonnull %1) #8
  call void @llvm.memcpy.p0.p0.i64(ptr noundef nonnull align 16 dereferenceable(123) %1, ptr noundef nonnull align 16 dereferenceable(123) @__const.test_decode_tls_sct.tls_sct_list, i64 123, i1 false)
  %2 = tail call fastcc ptr @set_up(ptr noundef nonnull @.str.10)
  %3 = icmp eq ptr %2, null
  br i1 %3, label %15, label %4

4:                                                ; preds = %0
  %5 = getelementptr inbounds nuw i8, ptr %2, i64 56
  store ptr %1, ptr %5, align 8, !tbaa !25
  %6 = getelementptr inbounds nuw i8, ptr %2, i64 64
  store i64 122, ptr %6, align 8, !tbaa !26
  %7 = load ptr, ptr @ct_dir, align 8, !tbaa !4
  %8 = getelementptr inbounds nuw i8, ptr %2, i64 80
  store ptr %7, ptr %8, align 8, !tbaa !20
  %9 = getelementptr inbounds nuw i8, ptr %2, i64 88
  store ptr @.str.51, ptr %9, align 8, !tbaa !21
  %10 = call fastcc i32 @execute_cert_test(ptr noundef %2)
  %11 = getelementptr inbounds nuw i8, ptr %2, i64 16
  %12 = load ptr, ptr %11, align 8, !tbaa !18
  call void @CTLOG_STORE_free(ptr noundef %12) #8
  %13 = getelementptr inbounds nuw i8, ptr %2, i64 72
  %14 = load ptr, ptr %13, align 8, !tbaa !19
  call void @SCT_LIST_free(ptr noundef %14) #8
  call void @CRYPTO_free(ptr noundef nonnull %2, ptr noundef nonnull @.str.16, i32 noundef 88) #8
  br label %15

15:                                               ; preds = %0, %4
  %.09 = phi i32 [ %10, %4 ], [ 0, %0 ]
  call void @llvm.lifetime.end.p0(i64 123, ptr nonnull %1) #8
  ret i32 %.09
}